target datalayout = "e-m:e-p270:32:32-p271:32:32-p272:64:64-i64:64-i128:128-f80:128-n8:16:32:64-S128"
target triple = "x86_64-pc-linux-gnu"

%struct.RelationData = type { %struct.RelFileLocator, ptr, i32, i32, i8, i8, i8, i8, i8, i32, i32, i32, i32, ptr, ptr, i32, %struct.LockInfoData, ptr, ptr, ptr, ptr, ptr, i8, ptr, ptr, ptr, ptr, ptr, ptr, i32, ptr, i8, ptr, ptr, i32, i8, i32, ptr, i8, ptr, ptr, ptr, ptr, ptr, ptr, ptr, i32, ptr, ptr, ptr, ptr, ptr, ptr, ptr, ptr, ptr, ptr, ptr, ptr, ptr, ptr, ptr, ptr, ptr, ptr, ptr, i32, i8, ptr }
%struct.RelFileLocator = type { i32, i32, i32 }
%struct.LockInfoData = type { %struct.LockRelId }
%struct.LockRelId = type { i32, i32 }
%struct.FormData_pg_class = type { i32, %struct.nameData, i32, i32, i32, i32, i32, i32, i32, i32, float, i32, i32, i8, i8, i8, i8, i16, i16, i8, i8, i8, i8, i8, i8, i8, i8, i32, i32, i32 }
%struct.nameData = type { [64 x i8] }
%struct.IndexAmRoutine = type { i32, i16, i16, i16, i8, i8, i8, i8, i8, i8, i8, i8, i8, i8, i8, i8, i8, i8, i8, i8, i8, i32, ptr, ptr, ptr, ptr, ptr, ptr, ptr, ptr, ptr, ptr, ptr, ptr, ptr, ptr, ptr, ptr, ptr, ptr, ptr, ptr, ptr, ptr, ptr, ptr, ptr, ptr }

@.str = private unnamed_addr constant [53 x i8] c"cannot access index \22%s\22 while it is being reindexed\00", align 1
@.str.1 = private unnamed_addr constant [10 x i8] c"indexam.c\00", align 1
@__func__.index_can_return = private unnamed_addr constant [17 x i8] c"index_can_return\00", align 1

; Function Attrs: nounwind uwtable
define dso_local zeroext i1 @index_can_return(ptr noundef %0, i32 noundef %1) #0 {
  %3 = alloca i1, align 1
  %4 = alloca ptr, align 8
  %5 = alloca i32, align 4
  store ptr %0, ptr %4, align 8
  store i32 %1, ptr %5, align 4
  br label %6

6:                                                ; preds = %2
  %7 = load ptr, ptr %4, align 8
  %8 = getelementptr inbounds nuw %struct.RelationData, ptr %7, i32 0, i32 15
  %9 = load i32, ptr %8, align 8
  %10 = call zeroext i1 @ReindexIsProcessingIndex(i32 noundef %9)
  %11 = zext i1 %10 to i32
  %12 = icmp ne i32 %11, 0
  %13 = zext i1 %12 to i32
  %14 = sext i32 %13 to i64
  %15 = call i64 @llvm.expect.i64(i64 %14, i64 0)
  %16 = icmp ne i64 %15, 0
  br i1 %16, label %17, label %34

17:                                               ; preds = %6
  br label %18

18:                                               ; preds = %17
  br i1 true, label %19, label %21

19:                                               ; preds = %18
  %20 = call zeroext i1 @errstart_cold(i32 noundef 21, ptr noundef null) #8
  br i1 %20, label %23, label %32

21:                                               ; preds = %18
  %22 = call zeroext i1 @errstart(i32 noundef 21, ptr noundef null)
  br i1 %22, label %23, label %32

23:                                               ; preds = %21, %19
  %24 = call i32 @errcode(i32 noundef 1088)
  %25 = load ptr, ptr %4, align 8
  %26 = getelementptr inbounds nuw %struct.RelationData, ptr %25, i32 0, i32 13
  %27 = load ptr, ptr %26, align 8
  %28 = getelementptr inbounds nuw %struct.FormData_pg_class, ptr %27, i32 0, i32 1
  %29 = getelementptr inbounds nuw %struct.nameData, ptr %28, i32 0, i32 0
  %30 = getelementptr inbounds [64 x i8], ptr %29, i64 0, i64 0
  %31 = call i32 (ptr, ...) @errmsg(ptr noundef @.str, ptr noundef %30)
  call void @errfinish(ptr noundef @.str.1, i32 noundef 792, ptr noundef @__func__.index_can_return)
  br label %32

32:                                               ; preds = %23, %21, %19
  unreachable

33:                                               ; No predecessors!
  br label %34

34:                                               ; preds = %33, %6
  br label %35

35:                                               ; preds = %34
  %36 = load ptr, ptr %4, align 8
  %37 = getelementptr inbounds nuw %struct.RelationData, ptr %36, i32 0, i32 51
  %38 = load ptr, ptr %37, align 8
  %39 = getelementptr inbounds nuw %struct.IndexAmRoutine, ptr %38, i32 0, i32 28
  %40 = load ptr, ptr %39, align 8
  %41 = icmp eq ptr %40, null
  br i1 %41, label %42, label %43

42:                                               ; preds = %35
  store i1 false, ptr %3, align 1
  br label %52

43:                                               ; preds = %35
  %44 = load ptr, ptr %4, align 8
  %45 = getelementptr inbounds nuw %struct.RelationData, ptr %44, i32 0, i32 51
  %46 = load ptr, ptr %45, align 8
  %47 = getelementptr inbounds nuw %struct.IndexAmRoutine, ptr %46, i32 0, i32 28
  %48 = load ptr, ptr %47, align 8
  %49 = load ptr, ptr %4, align 8
  %50 = load i32, ptr %5, align 4
  %51 = call zeroext i1 %48(ptr noundef %49, i32 noundef %50)
  store i1 %51, ptr %3, align 1
  br label %52

52:                                               ; preds = %43, %42
  %53 = load i1, ptr %3, align 1
  ret i1 %53
}