; Function Attrs: nounwind uwtable
define dso_local zeroext i1 @index_can_return(ptr noundef %0, i32 noundef %1) local_unnamed_addr #0 {
  %3 = getelementptr inbounds nuw i8, ptr %0, i64 72
  %4 = load i32, ptr %3, align 8
  %5 = tail call zeroext i1 @ReindexIsProcessingIndex(i32 noundef %4) #7
  br i1 %5, label %6, label %13, !prof !4

6:                                                ; preds = %2
  %7 = tail call zeroext i1 @errstart_cold(i32 noundef 21, ptr noundef null) #8
  tail call void @llvm.assume(i1 %7)
  %8 = tail call i32 @errcode(i32 noundef 1088) #7
  %9 = getelementptr inbounds nuw i8, ptr %0, i64 56
  %10 = load ptr, ptr %9, align 8
  %11 = getelementptr inbounds nuw i8, ptr %10, i64 4
  %12 = tail call i32 (ptr, ...) @errmsg(ptr noundef nonnull @.str, ptr noundef nonnull %11) #7
  tail call void @errfinish(ptr noundef nonnull @.str.1, i32 noundef 792, ptr noundef nonnull @__func__.index_can_return) #7
  unreachable

13:                                               ; preds = %2
  %14 = getelementptr inbounds nuw i8, ptr %0, i64 352
  %15 = load ptr, ptr %14, align 8
  %16 = getelementptr inbounds nuw i8, ptr %15, i64 80
  %17 = load ptr, ptr %16, align 8
  %18 = icmp eq ptr %17, null
  br i1 %18, label %21, label %19

19:                                               ; preds = %13
  %20 = tail call zeroext i1 %17(ptr noundef nonnull %0, i32 noundef %1) #7
  br label %21

21:                                               ; preds = %13, %19
  %.0 = phi i1 [ %20, %19 ], [ false, %13 ]
  ret i1 %.0
}